; Function Attrs: null_pointer_is_valid sspstrong uwtable
define internal noundef i32 @decode_dataitem_lat_range(ptr noundef %0, ptr noundef readonly captures(none) %1, ptr noundef %2, ptr readnone captures(none) %3) #0 {
  %5 = tail call ptr @proto_tree_get_parent(ptr noundef %2)
  %6 = load i32, ptr @hf_dlep_dataitem_max_lat, align 4
  %7 = tail call ptr @proto_tree_add_item(ptr noundef %2, i32 noundef %6, ptr noundef %0, i32 noundef 0, i32 noundef 8, i32 noundef 0)
  %8 = load i32, ptr @hf_dlep_dataitem_min_lat, align 4
  %9 = tail call ptr @proto_tree_add_item(ptr noundef %2, i32 noundef %8, ptr noundef %0, i32 noundef 8, i32 noundef 8, i32 noundef 0)
  %10 = getelementptr inbounds nuw i8, ptr %1, i64 408
  %11 = load ptr, ptr %10, align 8
  %12 = tail call ptr @proto_item_get_display_repr(ptr noundef %11, ptr noundef %9)
  %13 = load ptr, ptr %10, align 8
  %14 = tail call ptr @proto_item_get_display_repr(ptr noundef %13, ptr noundef %7)
  tail call void (ptr, ptr, ...) @proto_item_append_text(ptr noundef %5, ptr noundef nonnull @.str.222, ptr noundef %12, ptr noundef %14)
  ret i32 16
}